target datalayout = "e-m:e-p270:32:32-p271:32:32-p272:64:64-i64:64-i128:128-f80:128-n8:16:32:64-S128"
target triple = "x86_64-pc-linux-gnu"

%class.AdaptiveWeightedAverage = type { float, i32, i32, i8, float }
%class.ExceptionMark = type { ptr }
%class.ThreadShadow = type <{ ptr, ptr, ptr, i32, [4 x i8] }>

@TLABAllocationWeight = external global i64, align 8
@_ZN21ThreadLocalAllocStats24_perf_allocating_threadsE = hidden global ptr null, align 8
@_ZN21ThreadLocalAllocStats19_perf_total_refillsE = hidden global ptr null, align 8
@_ZN21ThreadLocalAllocStats17_perf_max_refillsE = hidden global ptr null, align 8
@_ZN21ThreadLocalAllocStats23_perf_total_allocationsE = hidden global ptr null, align 8
@_ZN21ThreadLocalAllocStats20_perf_total_gc_wasteE = hidden global ptr null, align 8
@_ZN21ThreadLocalAllocStats18_perf_max_gc_wasteE = hidden global ptr null, align 8
@_ZN21ThreadLocalAllocStats24_perf_total_refill_wasteE = hidden global ptr null, align 8
@_ZN21ThreadLocalAllocStats22_perf_max_refill_wasteE = hidden global ptr null, align 8
@_ZN21ThreadLocalAllocStats28_perf_total_slow_allocationsE = hidden global ptr null, align 8
@_ZN21ThreadLocalAllocStats26_perf_max_slow_allocationsE = hidden global ptr null, align 8
@_ZN21ThreadLocalAllocStats23_allocating_threads_avgE = hidden global %class.AdaptiveWeightedAverage zeroinitializer, align 4
@UsePerfData = external global i8, align 1
@.str.11 = private unnamed_addr constant [13 x i8] c"allocThreads\00", align 1
@.str.12 = private unnamed_addr constant [6 x i8] c"fills\00", align 1
@.str.13 = private unnamed_addr constant [9 x i8] c"maxFills\00", align 1
@.str.14 = private unnamed_addr constant [6 x i8] c"alloc\00", align 1
@.str.15 = private unnamed_addr constant [8 x i8] c"gcWaste\00", align 1
@.str.16 = private unnamed_addr constant [11 x i8] c"maxGcWaste\00", align 1
@.str.17 = private unnamed_addr constant [12 x i8] c"refillWaste\00", align 1
@.str.18 = private unnamed_addr constant [15 x i8] c"maxRefillWaste\00", align 1
@.str.19 = private unnamed_addr constant [10 x i8] c"slowAlloc\00", align 1
@.str.20 = private unnamed_addr constant [13 x i8] c"maxSlowAlloc\00", align 1

; Function Attrs: mustprogress nounwind uwtable
define linkonce_odr hidden noundef zeroext i1 @_ZNK12ThreadShadow21has_pending_exceptionEv(ptr noundef nonnull align 8 dereferenceable(28) %0) #1 comdat align 2 {
  %2 = alloca ptr, align 8
  store ptr %0, ptr %2, align 8
  %3 = load ptr, ptr %2, align 8
  %4 = getelementptr inbounds %class.ThreadShadow, ptr %3, i32 0, i32 1
  %5 = load ptr, ptr %4, align 8
  %6 = icmp ne ptr %5, null
  ret i1 %6
}

; Function Attrs: mustprogress nounwind uwtable
define linkonce_odr hidden noundef ptr @_ZN13ExceptionMark6threadEv(ptr noundef nonnull align 8 dereferenceable(8) %0) #1 comdat align 2 {
  %2 = alloca ptr, align 8
  store ptr %0, ptr %2, align 8
  %3 = load ptr, ptr %2, align 8
  %4 = getelementptr inbounds %class.ExceptionMark, ptr %3, i32 0, i32 0
  %5 = load ptr, ptr %4, align 8
  ret ptr %5
}

; Function Attrs: mustprogress nounwind uwtable
define linkonce_odr hidden void @_ZN23AdaptiveWeightedAverageC2Ejf(ptr noundef nonnull align 4 dereferenceable(20) %0, i32 noundef %1, float noundef %2) unnamed_addr #1 comdat align 2 {
  %4 = alloca ptr, align 8
  %5 = alloca i32, align 4
  %6 = alloca float, align 4
  store ptr %0, ptr %4, align 8
  store i32 %1, ptr %5, align 4
  store float %2, ptr %6, align 4
  %7 = load ptr, ptr %4, align 8
  %8 = getelementptr inbounds %class.AdaptiveWeightedAverage, ptr %7, i32 0, i32 0
  %9 = load float, ptr %6, align 4
  store float %9, ptr %8, align 4
  %10 = getelementptr inbounds %class.AdaptiveWeightedAverage, ptr %7, i32 0, i32 1
  store i32 0, ptr %10, align 4
  %11 = getelementptr inbounds %class.AdaptiveWeightedAverage, ptr %7, i32 0, i32 2
  %12 = load i32, ptr %5, align 4
  store i32 %12, ptr %11, align 4
  %13 = getelementptr inbounds %class.AdaptiveWeightedAverage, ptr %7, i32 0, i32 3
  store i8 0, ptr %13, align 4
  %14 = getelementptr inbounds %class.AdaptiveWeightedAverage, ptr %7, i32 0, i32 4
  store float 0.000000e+00, ptr %14, align 4
  ret void
}

; Function Attrs: mustprogress nounwind uwtable
define hidden void @_ZN21ThreadLocalAllocStats10initializeEv() #1 align 2 {
  %1 = alloca %class.AdaptiveWeightedAverage, align 4
  %2 = alloca %class.ExceptionMark, align 8
  %3 = alloca ptr, align 8
  %4 = alloca i32, align 4
  %5 = load i64, ptr @TLABAllocationWeight, align 8
  %6 = trunc i64 %5 to i32
  call void @_ZN23AdaptiveWeightedAverageC2Ejf(ptr noundef nonnull align 4 dereferenceable(20) %1, i32 noundef %6, float noundef 0.000000e+00)
  call void @llvm.memcpy.p0.p0.i64(ptr align 4 @_ZN21ThreadLocalAllocStats23_allocating_threads_avgE, ptr align 4 %1, i64 20, i1 false)
  call void @_ZN23AdaptiveWeightedAverage6sampleEf(ptr noundef nonnull align 4 dereferenceable(20) @_ZN21ThreadLocalAllocStats23_allocating_threads_avgE, float noundef 1.000000e+00)
  %7 = load i8, ptr @UsePerfData, align 1
  %8 = trunc i8 %7 to i1
  br i1 %8, label %9, label %74

9:                                                ; preds = %0
  call void @_ZN13ExceptionMarkC1Ev(ptr noundef nonnull align 8 dereferenceable(8) %2)
  %10 = call noundef ptr @_ZN13ExceptionMark6threadEv(ptr noundef nonnull align 8 dereferenceable(8) %2)
  store ptr %10, ptr %3, align 8
  %11 = load ptr, ptr %3, align 8
  %12 = call noundef ptr @_ZL20create_perf_variablePKcN8PerfData5UnitsEP10JavaThread(ptr noundef @.str.11, i32 noundef 1, ptr noundef %11)
  store ptr %12, ptr @_ZN21ThreadLocalAllocStats24_perf_allocating_threadsE, align 8
  %13 = load ptr, ptr %3, align 8
  %14 = call noundef zeroext i1 @_ZNK12ThreadShadow21has_pending_exceptionEv(ptr noundef nonnull align 8 dereferenceable(28) %13)
  br i1 %14, label %15, label %16

15:                                               ; preds = %9
  store i32 1, ptr %4, align 4
  br label %71

16:                                               ; preds = %9
  %17 = load ptr, ptr %3, align 8
  %18 = call noundef ptr @_ZL20create_perf_variablePKcN8PerfData5UnitsEP10JavaThread(ptr noundef @.str.12, i32 noundef 1, ptr noundef %17)
  store ptr %18, ptr @_ZN21ThreadLocalAllocStats19_perf_total_refillsE, align 8
  %19 = load ptr, ptr %3, align 8
  %20 = call noundef zeroext i1 @_ZNK12ThreadShadow21has_pending_exceptionEv(ptr noundef nonnull align 8 dereferenceable(28) %19)
  br i1 %20, label %21, label %22

21:                                               ; preds = %16
  store i32 1, ptr %4, align 4
  br label %71

22:                                               ; preds = %16
  %23 = load ptr, ptr %3, align 8
  %24 = call noundef ptr @_ZL20create_perf_variablePKcN8PerfData5UnitsEP10JavaThread(ptr noundef @.str.13, i32 noundef 1, ptr noundef %23)
  store ptr %24, ptr @_ZN21ThreadLocalAllocStats17_perf_max_refillsE, align 8
  %25 = load ptr, ptr %3, align 8
  %26 = call noundef zeroext i1 @_ZNK12ThreadShadow21has_pending_exceptionEv(ptr noundef nonnull align 8 dereferenceable(28) %25)
  br i1 %26, label %27, label %28

27:                                               ; preds = %22
  store i32 1, ptr %4, align 4
  br label %71

28:                                               ; preds = %22
  %29 = load ptr, ptr %3, align 8
  %30 = call noundef ptr @_ZL20create_perf_variablePKcN8PerfData5UnitsEP10JavaThread(ptr noundef @.str.14, i32 noundef 2, ptr noundef %29)
  store ptr %30, ptr @_ZN21ThreadLocalAllocStats23_perf_total_allocationsE, align 8
  %31 = load ptr, ptr %3, align 8
  %32 = call noundef zeroext i1 @_ZNK12ThreadShadow21has_pending_exceptionEv(ptr noundef nonnull align 8 dereferenceable(28) %31)
  br i1 %32, label %33, label %34

33:                                               ; preds = %28
  store i32 1, ptr %4, align 4
  br label %71

34:                                               ; preds = %28
  %35 = load ptr, ptr %3, align 8
  %36 = call noundef ptr @_ZL20create_perf_variablePKcN8PerfData5UnitsEP10JavaThread(ptr noundef @.str.15, i32 noundef 2, ptr noundef %35)
  store ptr %36, ptr @_ZN21ThreadLocalAllocStats20_perf_total_gc_wasteE, align 8
  %37 = load ptr, ptr %3, align 8
  %38 = call noundef zeroext i1 @_ZNK12ThreadShadow21has_pending_exceptionEv(ptr noundef nonnull align 8 dereferenceable(28) %37)
  br i1 %38, label %39, label %40

39:                                               ; preds = %34
  store i32 1, ptr %4, align 4
  br label %71

40:                                               ; preds = %34
  %41 = load ptr, ptr %3, align 8
  %42 = call noundef ptr @_ZL20create_perf_variablePKcN8PerfData5UnitsEP10JavaThread(ptr noundef @.str.16, i32 noundef 2, ptr noundef %41)
  store ptr %42, ptr @_ZN21ThreadLocalAllocStats18_perf_max_gc_wasteE, align 8
  %43 = load ptr, ptr %3, align 8
  %44 = call noundef zeroext i1 @_ZNK12ThreadShadow21has_pending_exceptionEv(ptr noundef nonnull align 8 dereferenceable(28) %43)
  br i1 %44, label %45, label %46

45:                                               ; preds = %40
  store i32 1, ptr %4, align 4
  br label %71

46:                                               ; preds = %40
  %47 = load ptr, ptr %3, align 8
  %48 = call noundef ptr @_ZL20create_perf_variablePKcN8PerfData5UnitsEP10JavaThread(ptr noundef @.str.17, i32 noundef 2, ptr noundef %47)
  store ptr %48, ptr @_ZN21ThreadLocalAllocStats24_perf_total_refill_wasteE, align 8
  %49 = load ptr, ptr %3, align 8
  %50 = call noundef zeroext i1 @_ZNK12ThreadShadow21has_pending_exceptionEv(ptr noundef nonnull align 8 dereferenceable(28) %49)
  br i1 %50, label %51, label %52

51:                                               ; preds = %46
  store i32 1, ptr %4, align 4
  br label %71

52:                                               ; preds = %46
  %53 = load ptr, ptr %3, align 8
  %54 = call noundef ptr @_ZL20create_perf_variablePKcN8PerfData5UnitsEP10JavaThread(ptr noundef @.str.18, i32 noundef 2, ptr noundef %53)
  store ptr %54, ptr @_ZN21ThreadLocalAllocStats22_perf_max_refill_wasteE, align 8
  %55 = load ptr, ptr %3, align 8
  %56 = call noundef zeroext i1 @_ZNK12ThreadShadow21has_pending_exceptionEv(ptr noundef nonnull align 8 dereferenceable(28) %55)
  br i1 %56, label %57, label %58

57:                                               ; preds = %52
  store i32 1, ptr %4, align 4
  br label %71

58:                                               ; preds = %52
  %59 = load ptr, ptr %3, align 8
  %60 = call noundef ptr @_ZL20create_perf_variablePKcN8PerfData5UnitsEP10JavaThread(ptr noundef @.str.19, i32 noundef 1, ptr noundef %59)
  store ptr %60, ptr @_ZN21ThreadLocalAllocStats28_perf_total_slow_allocationsE, align 8
  %61 = load ptr, ptr %3, align 8
  %62 = call noundef zeroext i1 @_ZNK12ThreadShadow21has_pending_exceptionEv(ptr noundef nonnull align 8 dereferenceable(28) %61)
  br i1 %62, label %63, label %64

63:                                               ; preds = %58
  store i32 1, ptr %4, align 4
  br label %71

64:                                               ; preds = %58
  %65 = load ptr, ptr %3, align 8
  %66 = call noundef ptr @_ZL20create_perf_variablePKcN8PerfData5UnitsEP10JavaThread(ptr noundef @.str.20, i32 noundef 1, ptr noundef %65)
  store ptr %66, ptr @_ZN21ThreadLocalAllocStats26_perf_max_slow_allocationsE, align 8
  %67 = load ptr, ptr %3, align 8
  %68 = call noundef zeroext i1 @_ZNK12ThreadShadow21has_pending_exceptionEv(ptr noundef nonnull align 8 dereferenceable(28) %67)
  br i1 %68, label %69, label %70

69:                                               ; preds = %64
  store i32 1, ptr %4, align 4
  br label %71

70:                                               ; preds = %64
  store i32 0, ptr %4, align 4
  br label %71

71:                                               ; preds = %70, %69, %63, %57, %51, %45, %39, %33, %27, %21, %15
  call void @_ZN13ExceptionMarkD1Ev(ptr noundef nonnull align 8 dereferenceable(8) %2) #9
  %72 = load i32, ptr %4, align 4
  switch i32 %72, label %75 [
    i32 0, label %73
    i32 1, label %74
  ]

73:                                               ; preds = %71
  br label %74

74:                                               ; preds = %73, %71, %0
  ret void

75:                                               ; preds = %71
  unreachable
}