; Function Attrs: mustprogress nounwind uwtable
define hidden void @_ZN21ThreadLocalAllocStats10initializeEv() local_unnamed_addr #3 align 2 {
  %1 = alloca %class.ExceptionMark, align 8
  %2 = load i64, ptr @TLABAllocationWeight, align 8
  %3 = trunc i64 %2 to i32
  store float 0.000000e+00, ptr @_ZN21ThreadLocalAllocStats23_allocating_threads_avgE, align 4
  store i32 0, ptr getelementptr inbounds (i8, ptr @_ZN21ThreadLocalAllocStats23_allocating_threads_avgE, i64 4), align 4
  store i32 %3, ptr getelementptr inbounds (i8, ptr @_ZN21ThreadLocalAllocStats23_allocating_threads_avgE, i64 8), align 4
  store i8 0, ptr getelementptr inbounds (i8, ptr @_ZN21ThreadLocalAllocStats23_allocating_threads_avgE, i64 12), align 4
  store float 0.000000e+00, ptr getelementptr inbounds (i8, ptr @_ZN21ThreadLocalAllocStats23_allocating_threads_avgE, i64 16), align 4
  tail call void @_ZN23AdaptiveWeightedAverage6sampleEf(ptr noundef nonnull align 4 dereferenceable(20) @_ZN21ThreadLocalAllocStats23_allocating_threads_avgE, float noundef 1.000000e+00) #16
  %4 = load i8, ptr @UsePerfData, align 1
  %5 = trunc i8 %4 to i1
  br i1 %5, label %6, label %124

6:                                                ; preds = %0
  call void @_ZN13ExceptionMarkC1Ev(ptr noundef nonnull align 8 dereferenceable(8) %1) #16
  %7 = load ptr, ptr %1, align 8
  %8 = call align 8 ptr @llvm.threadlocal.address.p0(ptr align 8 @_ZN6Thread12_thr_currentE)
  %9 = load ptr, ptr %8, align 8
  %10 = getelementptr inbounds i8, ptr %9, i64 800
  %11 = load ptr, ptr %10, align 8
  %12 = getelementptr inbounds i8, ptr %11, i64 24
  %13 = load ptr, ptr %12, align 8
  %14 = getelementptr inbounds i8, ptr %11, i64 32
  %15 = load ptr, ptr %14, align 8
  %16 = getelementptr inbounds i8, ptr %11, i64 40
  %17 = load ptr, ptr %16, align 8
  %18 = getelementptr inbounds i8, ptr %11, i64 8
  %19 = load i64, ptr %18, align 8
  %20 = call noundef ptr @_ZN15PerfDataManager12counter_nameEPKcS1_(ptr noundef nonnull @.str.26, ptr noundef nonnull @.str.11) #16
  %21 = call noundef ptr @_ZN15PerfDataManager20create_long_variableE9CounterNSPKcN8PerfData5UnitsElP10JavaThread(i32 noundef 5, ptr noundef %20, i32 noundef 1, i64 noundef 0, ptr noundef %7) #16
  %22 = load ptr, ptr %13, align 8
  %.not.i.i.i.i.i = icmp eq ptr %22, null
  br i1 %.not.i.i.i.i.i, label %24, label %23

23:                                               ; preds = %6
  call void @_ZN5Arena17set_size_in_bytesEm(ptr noundef nonnull align 8 dereferenceable(48) %11, i64 noundef %19) #16
  call void @_ZN5Chunk9next_chopEPS_(ptr noundef nonnull %13) #16
  br label %24

24:                                               ; preds = %23, %6
  %25 = load ptr, ptr %14, align 8
  %.not8.i.i.i.i.i = icmp eq ptr %25, %15
  br i1 %.not8.i.i.i.i.i, label %_ZL20create_perf_variablePKcN8PerfData5UnitsEP10JavaThread.exit, label %26

26:                                               ; preds = %24
  store ptr %13, ptr %12, align 8
  store ptr %15, ptr %14, align 8
  store ptr %17, ptr %16, align 8
  br label %_ZL20create_perf_variablePKcN8PerfData5UnitsEP10JavaThread.exit

_ZL20create_perf_variablePKcN8PerfData5UnitsEP10JavaThread.exit: ; preds = %24, %26
  store ptr %21, ptr @_ZN21ThreadLocalAllocStats24_perf_allocating_threadsE, align 8
  %27 = getelementptr inbounds i8, ptr %7, i64 8
  %28 = load ptr, ptr %27, align 8
  %.not = icmp eq ptr %28, null
  br i1 %.not, label %29, label %123

29:                                               ; preds = %_ZL20create_perf_variablePKcN8PerfData5UnitsEP10JavaThread.exit
  %30 = load ptr, ptr %8, align 8
  %31 = getelementptr inbounds i8, ptr %30, i64 800
  %32 = load ptr, ptr %31, align 8
  %33 = getelementptr inbounds i8, ptr %32, i64 24
  %34 = load ptr, ptr %33, align 8
  %35 = getelementptr inbounds i8, ptr %32, i64 32
  %36 = load ptr, ptr %35, align 8
  %37 = getelementptr inbounds i8, ptr %32, i64 40
  %38 = load ptr, ptr %37, align 8
  %39 = getelementptr inbounds i8, ptr %32, i64 8
  %40 = load i64, ptr %39, align 8
  %41 = call noundef ptr @_ZN15PerfDataManager12counter_nameEPKcS1_(ptr noundef nonnull @.str.26, ptr noundef nonnull @.str.12) #16
  %42 = call noundef ptr @_ZN15PerfDataManager20create_long_variableE9CounterNSPKcN8PerfData5UnitsElP10JavaThread(i32 noundef 5, ptr noundef %41, i32 noundef 1, i64 noundef 0, ptr noundef nonnull %7) #16
  %43 = load ptr, ptr %34, align 8
  %.not.i.i.i.i.i20 = icmp eq ptr %43, null
  br i1 %.not.i.i.i.i.i20, label %45, label %44

44:                                               ; preds = %29
  call void @_ZN5Arena17set_size_in_bytesEm(ptr noundef nonnull align 8 dereferenceable(48) %32, i64 noundef %40) #16
  call void @_ZN5Chunk9next_chopEPS_(ptr noundef nonnull %34) #16
  br label %45

45:                                               ; preds = %44, %29
  %46 = load ptr, ptr %35, align 8
  %.not8.i.i.i.i.i21 = icmp eq ptr %46, %36
  br i1 %.not8.i.i.i.i.i21, label %_ZL20create_perf_variablePKcN8PerfData5UnitsEP10JavaThread.exit22, label %47

47:                                               ; preds = %45
  store ptr %34, ptr %33, align 8
  store ptr %36, ptr %35, align 8
  store ptr %38, ptr %37, align 8
  br label %_ZL20create_perf_variablePKcN8PerfData5UnitsEP10JavaThread.exit22

_ZL20create_perf_variablePKcN8PerfData5UnitsEP10JavaThread.exit22: ; preds = %45, %47
  store ptr %42, ptr @_ZN21ThreadLocalAllocStats19_perf_total_refillsE, align 8
  %48 = load ptr, ptr %27, align 8
  %.not33 = icmp eq ptr %48, null
  br i1 %.not33, label %49, label %123

49:                                               ; preds = %_ZL20create_perf_variablePKcN8PerfData5UnitsEP10JavaThread.exit22
  %50 = load ptr, ptr %8, align 8
  %51 = getelementptr inbounds i8, ptr %50, i64 800
  %52 = load ptr, ptr %51, align 8
  %53 = getelementptr inbounds i8, ptr %52, i64 24
  %54 = load ptr, ptr %53, align 8
  %55 = getelementptr inbounds i8, ptr %52, i64 32
  %56 = load ptr, ptr %55, align 8
  %57 = getelementptr inbounds i8, ptr %52, i64 40
  %58 = load ptr, ptr %57, align 8
  %59 = getelementptr inbounds i8, ptr %52, i64 8
  %60 = load i64, ptr %59, align 8
  %61 = call noundef ptr @_ZN15PerfDataManager12counter_nameEPKcS1_(ptr noundef nonnull @.str.26, ptr noundef nonnull @.str.13) #16
  %62 = call noundef ptr @_ZN15PerfDataManager20create_long_variableE9CounterNSPKcN8PerfData5UnitsElP10JavaThread(i32 noundef 5, ptr noundef %61, i32 noundef 1, i64 noundef 0, ptr noundef nonnull %7) #16
  %63 = load ptr, ptr %54, align 8
  %.not.i.i.i.i.i23 = icmp eq ptr %63, null
  br i1 %.not.i.i.i.i.i23, label %65, label %64

64:                                               ; preds = %49
  call void @_ZN5Arena17set_size_in_bytesEm(ptr noundef nonnull align 8 dereferenceable(48) %52, i64 noundef %60) #16
  call void @_ZN5Chunk9next_chopEPS_(ptr noundef nonnull %54) #16
  br label %65

65:                                               ; preds = %64, %49
  %66 = load ptr, ptr %55, align 8
  %.not8.i.i.i.i.i24 = icmp eq ptr %66, %56
  br i1 %.not8.i.i.i.i.i24, label %_ZL20create_perf_variablePKcN8PerfData5UnitsEP10JavaThread.exit25, label %67

67:                                               ; preds = %65
  store ptr %54, ptr %53, align 8
  store ptr %56, ptr %55, align 8
  store ptr %58, ptr %57, align 8
  br label %_ZL20create_perf_variablePKcN8PerfData5UnitsEP10JavaThread.exit25

_ZL20create_perf_variablePKcN8PerfData5UnitsEP10JavaThread.exit25: ; preds = %65, %67
  store ptr %62, ptr @_ZN21ThreadLocalAllocStats17_perf_max_refillsE, align 8
  %68 = load ptr, ptr %27, align 8
  %.not34 = icmp eq ptr %68, null
  br i1 %.not34, label %69, label %123

69:                                               ; preds = %_ZL20create_perf_variablePKcN8PerfData5UnitsEP10JavaThread.exit25
  %70 = load ptr, ptr %8, align 8
  %71 = getelementptr inbounds i8, ptr %70, i64 800
  %72 = load ptr, ptr %71, align 8
  %73 = getelementptr inbounds i8, ptr %72, i64 24
  %74 = load ptr, ptr %73, align 8
  %75 = getelementptr inbounds i8, ptr %72, i64 32
  %76 = load ptr, ptr %75, align 8
  %77 = getelementptr inbounds i8, ptr %72, i64 40
  %78 = load ptr, ptr %77, align 8
  %79 = getelementptr inbounds i8, ptr %72, i64 8
  %80 = load i64, ptr %79, align 8
  %81 = call noundef ptr @_ZN15PerfDataManager12counter_nameEPKcS1_(ptr noundef nonnull @.str.26, ptr noundef nonnull @.str.14) #16
  %82 = call noundef ptr @_ZN15PerfDataManager20create_long_variableE9CounterNSPKcN8PerfData5UnitsElP10JavaThread(i32 noundef 5, ptr noundef %81, i32 noundef 2, i64 noundef 0, ptr noundef nonnull %7) #16
  %83 = load ptr, ptr %74, align 8
  %.not.i.i.i.i.i26 = icmp eq ptr %83, null
  br i1 %.not.i.i.i.i.i26, label %85, label %84

84:                                               ; preds = %69
  call void @_ZN5Arena17set_size_in_bytesEm(ptr noundef nonnull align 8 dereferenceable(48) %72, i64 noundef %80) #16
  call void @_ZN5Chunk9next_chopEPS_(ptr noundef nonnull %74) #16
  br label %85

85:                                               ; preds = %84, %69
  %86 = load ptr, ptr %75, align 8
  %.not8.i.i.i.i.i27 = icmp eq ptr %86, %76
  br i1 %.not8.i.i.i.i.i27, label %_ZL20create_perf_variablePKcN8PerfData5UnitsEP10JavaThread.exit28, label %87

87:                                               ; preds = %85
  store ptr %74, ptr %73, align 8
  store ptr %76, ptr %75, align 8
  store ptr %78, ptr %77, align 8
  br label %_ZL20create_perf_variablePKcN8PerfData5UnitsEP10JavaThread.exit28

_ZL20create_perf_variablePKcN8PerfData5UnitsEP10JavaThread.exit28: ; preds = %85, %87
  store ptr %82, ptr @_ZN21ThreadLocalAllocStats23_perf_total_allocationsE, align 8
  %88 = load ptr, ptr %27, align 8
  %.not35 = icmp eq ptr %88, null
  br i1 %.not35, label %89, label %123

89:                                               ; preds = %_ZL20create_perf_variablePKcN8PerfData5UnitsEP10JavaThread.exit28
  %90 = load ptr, ptr %8, align 8
  %91 = getelementptr inbounds i8, ptr %90, i64 800
  %92 = load ptr, ptr %91, align 8
  %93 = getelementptr inbounds i8, ptr %92, i64 24
  %94 = load ptr, ptr %93, align 8
  %95 = getelementptr inbounds i8, ptr %92, i64 32
  %96 = load ptr, ptr %95, align 8
  %97 = getelementptr inbounds i8, ptr %92, i64 40
  %98 = load ptr, ptr %97, align 8
  %99 = getelementptr inbounds i8, ptr %92, i64 8
  %100 = load i64, ptr %99, align 8
  %101 = call noundef ptr @_ZN15PerfDataManager12counter_nameEPKcS1_(ptr noundef nonnull @.str.26, ptr noundef nonnull @.str.15) #16
  %102 = call noundef ptr @_ZN15PerfDataManager20create_long_variableE9CounterNSPKcN8PerfData5UnitsElP10JavaThread(i32 noundef 5, ptr noundef %101, i32 noundef 2, i64 noundef 0, ptr noundef nonnull %7) #16
  %103 = load ptr, ptr %94, align 8
  %.not.i.i.i.i.i29 = icmp eq ptr %103, null
  br i1 %.not.i.i.i.i.i29, label %105, label %104

104:                                              ; preds = %89
  call void @_ZN5Arena17set_size_in_bytesEm(ptr noundef nonnull align 8 dereferenceable(48) %92, i64 noundef %100) #16
  call void @_ZN5Chunk9next_chopEPS_(ptr noundef nonnull %94) #16
  br label %105

105:                                              ; preds = %104, %89
  %106 = load ptr, ptr %95, align 8
  %.not8.i.i.i.i.i30 = icmp eq ptr %106, %96
  br i1 %.not8.i.i.i.i.i30, label %_ZL20create_perf_variablePKcN8PerfData5UnitsEP10JavaThread.exit31, label %107

107:                                              ; preds = %105
  store ptr %94, ptr %93, align 8
  store ptr %96, ptr %95, align 8
  store ptr %98, ptr %97, align 8
  br label %_ZL20create_perf_variablePKcN8PerfData5UnitsEP10JavaThread.exit31

_ZL20create_perf_variablePKcN8PerfData5UnitsEP10JavaThread.exit31: ; preds = %105, %107
  store ptr %102, ptr @_ZN21ThreadLocalAllocStats20_perf_total_gc_wasteE, align 8
  %108 = load ptr, ptr %27, align 8
  %.not36 = icmp eq ptr %108, null
  br i1 %.not36, label %109, label %123

109:                                              ; preds = %_ZL20create_perf_variablePKcN8PerfData5UnitsEP10JavaThread.exit31
  %110 = call fastcc noundef ptr @_ZL20create_perf_variablePKcN8PerfData5UnitsEP10JavaThread(ptr noundef nonnull @.str.16, i32 noundef 2, ptr noundef nonnull %7)
  store ptr %110, ptr @_ZN21ThreadLocalAllocStats18_perf_max_gc_wasteE, align 8
  %111 = load ptr, ptr %27, align 8
  %.not37 = icmp eq ptr %111, null
  br i1 %.not37, label %112, label %123

112:                                              ; preds = %109
  %113 = call fastcc noundef ptr @_ZL20create_perf_variablePKcN8PerfData5UnitsEP10JavaThread(ptr noundef nonnull @.str.17, i32 noundef 2, ptr noundef nonnull %7)
  store ptr %113, ptr @_ZN21ThreadLocalAllocStats24_perf_total_refill_wasteE, align 8
  %114 = load ptr, ptr %27, align 8
  %.not38 = icmp eq ptr %114, null
  br i1 %.not38, label %115, label %123

115:                                              ; preds = %112
  %116 = call fastcc noundef ptr @_ZL20create_perf_variablePKcN8PerfData5UnitsEP10JavaThread(ptr noundef nonnull @.str.18, i32 noundef 2, ptr noundef nonnull %7)
  store ptr %116, ptr @_ZN21ThreadLocalAllocStats22_perf_max_refill_wasteE, align 8
  %117 = load ptr, ptr %27, align 8
  %.not39 = icmp eq ptr %117, null
  br i1 %.not39, label %118, label %123

118:                                              ; preds = %115
  %119 = call fastcc noundef ptr @_ZL20create_perf_variablePKcN8PerfData5UnitsEP10JavaThread(ptr noundef nonnull @.str.19, i32 noundef 1, ptr noundef nonnull %7)
  store ptr %119, ptr @_ZN21ThreadLocalAllocStats28_perf_total_slow_allocationsE, align 8
  %120 = load ptr, ptr %27, align 8
  %.not40 = icmp eq ptr %120, null
  br i1 %.not40, label %121, label %123

121:                                              ; preds = %118
  %122 = call fastcc noundef ptr @_ZL20create_perf_variablePKcN8PerfData5UnitsEP10JavaThread(ptr noundef nonnull @.str.20, i32 noundef 1, ptr noundef nonnull %7)
  store ptr %122, ptr @_ZN21ThreadLocalAllocStats26_perf_max_slow_allocationsE, align 8
  br label %123

123:                                              ; preds = %121, %118, %115, %112, %109, %_ZL20create_perf_variablePKcN8PerfData5UnitsEP10JavaThread.exit31, %_ZL20create_perf_variablePKcN8PerfData5UnitsEP10JavaThread.exit28, %_ZL20create_perf_variablePKcN8PerfData5UnitsEP10JavaThread.exit25, %_ZL20create_perf_variablePKcN8PerfData5UnitsEP10JavaThread.exit22, %_ZL20create_perf_variablePKcN8PerfData5UnitsEP10JavaThread.exit
  call void @_ZN13ExceptionMarkD1Ev(ptr noundef nonnull align 8 dereferenceable(8) %1) #16
  br label %124

124:                                              ; preds = %123, %0
  ret void
}